; ModuleID = '10/1167.c'
source_filename = "10/1167.c"
target datalayout = "e-m:e-p270:32:32-p271:32:32-p272:64:64-i64:64-f80:128-n8:16:32:64-S128"
target triple = "x86_64-pc-linux-gnu"

@.str = private unnamed_addr constant [3 x i8] c"%d\00", align 1

; Function Attrs: noinline nounwind uwtable
define dso_local i32 @num(i32 %0, i32 %1, i32* %2, i32 %3) #0 {
  %5 = alloca i32, align 4
  %6 = alloca i32, align 4
  %7 = alloca i32, align 4
  %8 = alloca i32*, align 8
  %9 = alloca i32, align 4
  %10 = alloca i32, align 4
  %11 = alloca i32, align 4
  store i32 %0, i32* %6, align 4
  store i32 %1, i32* %7, align 4
  store i32* %2, i32** %8, align 8
  store i32 %3, i32* %9, align 4
  %12 = load i32, i32* %7, align 4
  %13 = load i32, i32* %6, align 4
  %14 = icmp eq i32 %12, %13
  br i1 %14, label %15, label %16

15:                                               ; preds = %4
  store i32 0, i32* %5, align 4
  br label %74

16:                                               ; preds = %4
  %17 = load i32*, i32** %8, align 8
  %18 = load i32, i32* %7, align 4
  %19 = sext i32 %18 to i64
  %20 = getelementptr inbounds i32, i32* %17, i64 %19
  %21 = load i32, i32* %20, align 4
  %22 = load i32, i32* %9, align 4
  %23 = icmp sgt i32 %21, %22
  br i1 %23, label %24, label %31

24:                                               ; preds = %16
  %25 = load i32, i32* %6, align 4
  %26 = load i32, i32* %7, align 4
  %27 = add nsw i32 %26, 1
  %28 = load i32*, i32** %8, align 8
  %29 = load i32, i32* %9, align 4
  %30 = call i32 @num(i32 %25, i32 %27, i32* %28, i32 %29)
  store i32 %30, i32* %5, align 4
  br label %74

31:                                               ; preds = %16
  %32 = load i32*, i32** %8, align 8
  %33 = load i32, i32* %7, align 4
  %34 = sext i32 %33 to i64
  %35 = getelementptr inbounds i32, i32* %32, i64 %34
  %36 = load i32, i32* %35, align 4
  %37 = load i32, i32* %9, align 4
  %38 = icmp eq i32 %36, %37
  br i1 %38, label %39, label %47

39:                                               ; preds = %31
  %40 = load i32, i32* %6, align 4
  %41 = load i32, i32* %7, align 4
  %42 = add nsw i32 %41, 1
  %43 = load i32*, i32** %8, align 8
  %44 = load i32, i32* %9, align 4
  %45 = call i32 @num(i32 %40, i32 %42, i32* %43, i32 %44)
  %46 = add nsw i32 %45, 1
  store i32 %46, i32* %5, align 4
  br label %74

47:                                               ; preds = %31
  %48 = load i32, i32* %6, align 4
  %49 = load i32, i32* %7, align 4
  %50 = add nsw i32 %49, 1
  %51 = load i32*, i32** %8, align 8
  %52 = load i32, i32* %9, align 4
  %53 = call i32 @num(i32 %48, i32 %50, i32* %51, i32 %52)
  store i32 %53, i32* %10, align 4
  %54 = load i32, i32* %6, align 4
  %55 = load i32, i32* %7, align 4
  %56 = add nsw i32 %55, 1
  %57 = load i32*, i32** %8, align 8
  %58 = load i32*, i32** %8, align 8
  %59 = load i32, i32* %7, align 4
  %60 = sext i32 %59 to i64
  %61 = getelementptr inbounds i32, i32* %58, i64 %60
  %62 = load i32, i32* %61, align 4
  %63 = call i32 @num(i32 %54, i32 %56, i32* %57, i32 %62)
  %64 = add nsw i32 %63, 1
  store i32 %64, i32* %11, align 4
  %65 = load i32, i32* %10, align 4
  %66 = load i32, i32* %11, align 4
  %67 = icmp sgt i32 %65, %66
  br i1 %67, label %68, label %70

68:                                               ; preds = %47
  %69 = load i32, i32* %10, align 4
  br label %72

70:                                               ; preds = %47
  %71 = load i32, i32* %11, align 4
  br label %72

72:                                               ; preds = %70, %68
  %73 = phi i32 [ %69, %68 ], [ %71, %70 ]
  store i32 %73, i32* %5, align 4
  br label %74

74:                                               ; preds = %72, %39, %24, %15
  %75 = load i32, i32* %5, align 4
  ret i32 %75
}

; Function Attrs: noinline nounwind uwtable
define dso_local i32 @main() #0 {
  %1 = alloca i32, align 4
  %2 = alloca i32, align 4
  %3 = alloca [25 x i32], align 16
  %4 = alloca i32, align 4
  store i32 0, i32* %1, align 4
  %5 = call i32 (i8*, ...) @__isoc99_scanf(i8* getelementptr inbounds ([3 x i8], [3 x i8]* @.str, i64 0, i64 0), i32* %2)
  store i32 0, i32* %4, align 4
  br label %6

6:                                                ; preds = %15, %0
  %7 = load i32, i32* %4, align 4
  %8 = load i32, i32* %2, align 4
  %9 = icmp slt i32 %7, %8
  br i1 %9, label %10, label %18

10:                                               ; preds = %6
  %11 = load i32, i32* %4, align 4
  %12 = sext i32 %11 to i64
  %13 = getelementptr inbounds [25 x i32], [25 x i32]* %3, i64 0, i64 %12
  %14 = call i32 (i8*, ...) @__isoc99_scanf(i8* getelementptr inbounds ([3 x i8], [3 x i8]* @.str, i64 0, i64 0), i32* %13)
  br label %15

15:                                               ; preds = %10
  %16 = load i32, i32* %4, align 4
  %17 = add nsw i32 %16, 1
  store i32 %17, i32* %4, align 4
  br label %6

18:                                               ; preds = %6
  %19 = load i32, i32* %2, align 4
  %20 = getelementptr inbounds [25 x i32], [25 x i32]* %3, i64 0, i64 0
  %21 = call i32 @num(i32 %19, i32 0, i32* %20, i32 1000000000)
  %22 = call i32 (i8*, ...) @printf(i8* getelementptr inbounds ([3 x i8], [3 x i8]* @.str, i64 0, i64 0), i32 %21)
  ret i32 0
}

declare dso_local i32 @__isoc99_scanf(i8*, ...) #1

declare dso_local i32 @printf(i8*, ...) #1


!llvm.module.flags = !{!0}
!llvm.ident = !{!1}

!0 = !{i32 1, !"wchar_size", i32 4}
!1 = !{!"clang version 10.0.0-4ubuntu1 "}
